target datalayout = "e-m:e-p270:32:32-p271:32:32-p272:64:64-i64:64-i128:128-f80:128-n8:16:32:64-S128"
target triple = "x86_64-pc-linux-gnu"

%struct.expert_field = type { i32, i32 }
%struct._packet_info = type { ptr, ptr, i32, i32, %struct.nstime_t, %struct.nstime_t, %struct.nstime_t, i8, ptr, ptr, ptr, ptr, %struct._address, %struct._address, %struct._address, %struct._address, %struct._address, %struct._address, i32, ptr, i8, [3 x i8], %struct.anon, i32, i32, i32, i32, ptr, i8, ptr, ptr, i16, i16, i32, i32, i16, i32, i32, ptr, ptr, ptr, i8, i8, i16, i16, i16, i32, i16, i16, ptr, ptr, ptr, ptr, ptr, i32, i32 }
%struct.nstime_t = type { i64, i32 }
%struct._address = type { i32, i32, ptr, ptr }
%struct.anon = type { i8, [3 x i8] }
%struct._opensafety_packet_info = type { %struct._opensafety_packet_frame, i16, i16, i16, i16, i8, i8, i8, i8, i32, [6 x i8], i8, %struct._opensafety_packet_crc, %union.anon }
%struct._opensafety_packet_frame = type { i8, i16, i16, i32, i16, ptr }
%struct._opensafety_packet_crc = type { i8, i16, i16, i8, i8 }
%union.anon = type { ptr }
%struct._opensafety_packet_snmt = type { i8, %struct.anon.0, %struct.anon.1, i64, ptr, ptr, i8 }
%struct.anon.0 = type { i8, i8, i8, i8 }
%struct.anon.1 = type { i16, i16 }

@hf_oss_snmt_udid = internal global i32 0, align 4
@ei_scmudid_autodetected = internal global %struct.expert_field zeroinitializer, align 4
@global_scm_udid = internal global ptr @.str.346, align 8
@global_scm_udid_autoset = internal global i8 1, align 1
@global_opensafety_debug_verbose = internal global i8 0, align 1
@.str.346 = private unnamed_addr constant [18 x i8] c"00:00:00:00:00:00\00", align 1
@local_scm_udid = internal global ptr null, align 8
@.str.384 = private unnamed_addr constant [40 x i8] c"Auto detected payload as SCM UDID [%s].\00", align 1

; Function Attrs: null_pointer_is_valid sspstrong uwtable
define internal void @opensafety_parse_scm_udid(ptr noundef %0, ptr noundef %1, ptr noundef %2, ptr noundef %3, i32 noundef %4) #0 {
  %6 = alloca ptr, align 8
  %7 = alloca ptr, align 8
  %8 = alloca ptr, align 8
  %9 = alloca ptr, align 8
  %10 = alloca i32, align 4
  %11 = alloca ptr, align 8
  %12 = alloca ptr, align 8
  store ptr %0, ptr %6, align 8
  store ptr %1, ptr %7, align 8
  store ptr %2, ptr %8, align 8
  store ptr %3, ptr %9, align 8
  store i32 %4, ptr %10, align 4
  call void @llvm.lifetime.start.p0(i64 8, ptr %11) #12
  store ptr null, ptr %11, align 8
  call void @llvm.lifetime.start.p0(i64 8, ptr %12) #12
  store ptr null, ptr %12, align 8
  %13 = load ptr, ptr %8, align 8
  %14 = load i32, ptr @hf_oss_snmt_udid, align 4
  %15 = load ptr, ptr %6, align 8
  %16 = load i32, ptr %10, align 4
  %17 = call ptr @proto_tree_add_item(ptr noundef %13, i32 noundef %14, ptr noundef %15, i32 noundef %16, i32 noundef 6, i32 noundef 0)
  store ptr %17, ptr %11, align 8
  %18 = load ptr, ptr %7, align 8
  %19 = getelementptr inbounds nuw %struct._packet_info, ptr %18, i32 0, i32 51
  %20 = load ptr, ptr %19, align 8
  %21 = load ptr, ptr %6, align 8
  %22 = load i32, ptr %10, align 4
  %23 = call ptr @tvb_bytes_to_str_punct(ptr noundef %20, ptr noundef %21, i32 noundef %22, i32 noundef 6, i8 noundef signext 58)
  store ptr %23, ptr %12, align 8
  %24 = load ptr, ptr %12, align 8
  %25 = icmp ne ptr %24, null
  br i1 %25, label %26, label %72

26:                                               ; preds = %5
  %27 = load ptr, ptr %12, align 8
  %28 = call i64 @strlen(ptr noundef %27) #14
  %29 = icmp eq i64 %28, 17
  br i1 %29, label %30, label %72

30:                                               ; preds = %26
  %31 = load ptr, ptr %12, align 8
  %32 = call i32 @g_strcmp0(ptr noundef @.str.346, ptr noundef %31)
  %33 = icmp ne i32 %32, 0
  br i1 %33, label %34, label %71

34:                                               ; preds = %30
  %35 = load ptr, ptr %12, align 8
  %36 = load ptr, ptr %9, align 8
  %37 = getelementptr inbounds nuw %struct._opensafety_packet_info, ptr %36, i32 0, i32 13
  %38 = load ptr, ptr %37, align 8
  %39 = getelementptr inbounds nuw %struct._opensafety_packet_snmt, ptr %38, i32 0, i32 4
  store ptr %35, ptr %39, align 8
  %40 = load i8, ptr @global_scm_udid_autoset, align 1, !range !6, !noundef !7
  %41 = trunc i8 %40 to i1
  %42 = zext i1 %41 to i32
  %43 = icmp eq i32 %42, 1
  br i1 %43, label %44, label %70

44:                                               ; preds = %34
  %45 = load ptr, ptr @global_scm_udid, align 8
  %46 = load ptr, ptr %12, align 8
  %47 = call i32 @memcmp(ptr noundef %45, ptr noundef %46, i64 noundef 17) #14
  %48 = icmp ne i32 %47, 0
  br i1 %48, label %49, label %70

49:                                               ; preds = %44
  %50 = load ptr, ptr @local_scm_udid, align 8
  %51 = icmp eq ptr %50, null
  br i1 %51, label %57, label %52

52:                                               ; preds = %49
  %53 = load ptr, ptr @local_scm_udid, align 8
  %54 = load ptr, ptr %12, align 8
  %55 = call i32 @memcmp(ptr noundef %53, ptr noundef %54, i64 noundef 17) #14
  %56 = icmp ne i32 %55, 0
  br i1 %56, label %57, label %69

57:                                               ; preds = %52, %49
  %58 = call ptr @wmem_file_scope()
  %59 = load ptr, ptr %12, align 8
  %60 = call noalias ptr @wmem_strdup(ptr noundef %58, ptr noundef %59)
  store ptr %60, ptr @local_scm_udid, align 8
  %61 = load i8, ptr @global_opensafety_debug_verbose, align 1, !range !6, !noundef !7
  %62 = trunc i8 %61 to i1
  br i1 %62, label %63, label %68

63:                                               ; preds = %57
  %64 = load ptr, ptr %7, align 8
  %65 = load ptr, ptr %11, align 8
  %66 = load ptr, ptr @local_scm_udid, align 8
  %67 = call ptr (ptr, ptr, ptr, ptr, ...) @expert_add_info_format(ptr noundef %64, ptr noundef %65, ptr noundef @ei_scmudid_autodetected, ptr noundef @.str.384, ptr noundef %66)
  br label %68

68:                                               ; preds = %63, %57
  br label %69

69:                                               ; preds = %68, %52
  br label %70

70:                                               ; preds = %69, %44, %34
  br label %71

71:                                               ; preds = %70, %30
  br label %72

72:                                               ; preds = %71, %26, %5
  call void @llvm.lifetime.end.p0(i64 8, ptr %12) #12
  call void @llvm.lifetime.end.p0(i64 8, ptr %11) #12
  ret void
}