; Function Attrs: null_pointer_is_valid sspstrong uwtable
define internal fastcc void @opensafety_parse_scm_udid(ptr noundef %0, ptr noundef %1, ptr noundef %2, ptr noundef readonly captures(none) %3, i32 noundef range(i32 5, 65541) %4) unnamed_addr #0 {
  %6 = load i32, ptr @hf_oss_snmt_udid, align 4
  %7 = tail call ptr @proto_tree_add_item(ptr noundef %2, i32 noundef %6, ptr noundef %0, i32 noundef %4, i32 noundef 6, i32 noundef 0)
  %8 = getelementptr inbounds nuw i8, ptr %1, i64 408
  %9 = load ptr, ptr %8, align 8
  %10 = tail call ptr @tvb_bytes_to_str_punct(ptr noundef %9, ptr noundef %0, i32 noundef %4, i32 noundef 6, i8 noundef signext 58)
  %.not = icmp eq ptr %10, null
  br i1 %.not, label %35, label %11

11:                                               ; preds = %5
  %12 = tail call i64 @strlen(ptr noundef nonnull dereferenceable(1) %10) #15
  %13 = icmp eq i64 %12, 17
  br i1 %13, label %14, label %35

14:                                               ; preds = %11
  %15 = tail call i32 @g_strcmp0(ptr noundef nonnull @.str.346, ptr noundef nonnull %10)
  %.not16 = icmp eq i32 %15, 0
  br i1 %.not16, label %35, label %16

16:                                               ; preds = %14
  %17 = getelementptr inbounds nuw i8, ptr %3, i64 56
  %18 = load ptr, ptr %17, align 8
  %19 = getelementptr inbounds nuw i8, ptr %18, i64 24
  store ptr %10, ptr %19, align 8
  %20 = load i8, ptr @global_scm_udid_autoset, align 1, !range !6, !noundef !7
  %21 = trunc nuw i8 %20 to i1
  br i1 %21, label %22, label %35

22:                                               ; preds = %16
  %23 = load ptr, ptr @global_scm_udid, align 8
  %bcmp = tail call i32 @bcmp(ptr noundef dereferenceable(17) %23, ptr noundef nonnull dereferenceable(17) %10, i64 17)
  %.not17 = icmp eq i32 %bcmp, 0
  br i1 %.not17, label %35, label %24

24:                                               ; preds = %22
  %25 = load ptr, ptr @local_scm_udid, align 8
  %26 = icmp eq ptr %25, null
  br i1 %26, label %28, label %27

27:                                               ; preds = %24
  %bcmp18 = tail call i32 @bcmp(ptr noundef nonnull dereferenceable(17) %25, ptr noundef nonnull dereferenceable(17) %10, i64 17)
  %.not19 = icmp eq i32 %bcmp18, 0
  br i1 %.not19, label %35, label %28

28:                                               ; preds = %27, %24
  %29 = tail call ptr @wmem_file_scope()
  %30 = tail call noalias ptr @wmem_strdup(ptr noundef %29, ptr noundef nonnull %10)
  store ptr %30, ptr @local_scm_udid, align 8
  %31 = load i8, ptr @global_opensafety_debug_verbose, align 1, !range !6, !noundef !7
  %32 = trunc nuw i8 %31 to i1
  br i1 %32, label %33, label %35

33:                                               ; preds = %28
  %34 = tail call ptr (ptr, ptr, ptr, ptr, ...) @expert_add_info_format(ptr noundef %1, ptr noundef %7, ptr noundef nonnull @ei_scmudid_autodetected, ptr noundef nonnull @.str.384, ptr noundef %30)
  br label %35

35:                                               ; preds = %14, %27, %33, %28, %22, %16, %11, %5
  ret void
}